target datalayout = "e-m:e-p270:32:32-p271:32:32-p272:64:64-i64:64-i128:128-f80:128-n8:16:32:64-S128"
target triple = "x86_64-pc-linux-gnu"

%struct.SysRandom_ = type { i32, i32, i32 }

@stream = internal global %struct.SysRandom_ { i32 -1, i32 0, i32 0 }, align 4

; Function Attrs: nounwind ssp uwtable
define internal i32 @_randombytes_linux_getrandom(ptr noundef %0, i64 noundef %1) #0 {
  %3 = alloca ptr, align 8
  %4 = alloca i64, align 8
  %5 = alloca i32, align 4
  store ptr %0, ptr %3, align 8
  store i64 %1, ptr %4, align 8
  call void @llvm.lifetime.start.p0(i64 4, ptr %5) #6
  br label %6

6:                                                ; preds = %24, %2
  %7 = load ptr, ptr %3, align 8
  %8 = load i64, ptr %4, align 8
  %9 = call i64 @getrandom(ptr noundef %7, i64 noundef %8, i32 noundef 0)
  %10 = trunc i64 %9 to i32
  store i32 %10, ptr %5, align 4
  br label %11

11:                                               ; preds = %6
  %12 = load i32, ptr %5, align 4
  %13 = icmp slt i32 %12, 0
  br i1 %13, label %14, label %24

14:                                               ; preds = %11
  %15 = call ptr @__errno_location() #8
  %16 = load i32, ptr %15, align 4
  %17 = icmp eq i32 %16, 4
  br i1 %17, label %22, label %18

18:                                               ; preds = %14
  %19 = call ptr @__errno_location() #8
  %20 = load i32, ptr %19, align 4
  %21 = icmp eq i32 %20, 11
  br label %22

22:                                               ; preds = %18, %14
  %23 = phi i1 [ true, %14 ], [ %21, %18 ]
  br label %24

24:                                               ; preds = %22, %11
  %25 = phi i1 [ false, %11 ], [ %23, %22 ]
  br i1 %25, label %6, label %26, !llvm.loop !7

26:                                               ; preds = %24
  %27 = load i32, ptr %5, align 4
  %28 = load i64, ptr %4, align 8
  %29 = trunc i64 %28 to i32
  %30 = icmp eq i32 %27, %29
  %31 = zext i1 %30 to i32
  %32 = sub i32 %31, 1
  call void @llvm.lifetime.end.p0(i64 4, ptr %5) #6
  ret i32 %32
}

; Function Attrs: nounwind ssp uwtable
define internal i64 @safe_read(i32 noundef %0, ptr noundef %1, i64 noundef %2) #0 {
  %4 = alloca i64, align 8
  %5 = alloca i32, align 4
  %6 = alloca ptr, align 8
  %7 = alloca i64, align 8
  %8 = alloca ptr, align 8
  %9 = alloca i64, align 8
  %10 = alloca i32, align 4
  store i32 %0, ptr %5, align 4
  store ptr %1, ptr %6, align 8
  store i64 %2, ptr %7, align 8
  call void @llvm.lifetime.start.p0(i64 8, ptr %8) #6
  %11 = load ptr, ptr %6, align 8
  store ptr %11, ptr %8, align 8
  call void @llvm.lifetime.start.p0(i64 8, ptr %9) #6
  br label %12

12:                                               ; preds = %48, %3
  br label %13

13:                                               ; preds = %31, %12
  %14 = load i32, ptr %5, align 4
  %15 = load ptr, ptr %8, align 8
  %16 = load i64, ptr %7, align 8
  %17 = call i64 @read(i32 noundef %14, ptr noundef %15, i64 noundef %16)
  store i64 %17, ptr %9, align 8
  %18 = icmp slt i64 %17, 0
  br i1 %18, label %19, label %29

19:                                               ; preds = %13
  %20 = call ptr @__errno_location() #8
  %21 = load i32, ptr %20, align 4
  %22 = icmp eq i32 %21, 4
  br i1 %22, label %27, label %23

23:                                               ; preds = %19
  %24 = call ptr @__errno_location() #8
  %25 = load i32, ptr %24, align 4
  %26 = icmp eq i32 %25, 11
  br label %27

27:                                               ; preds = %23, %19
  %28 = phi i1 [ true, %19 ], [ %26, %23 ]
  br label %29

29:                                               ; preds = %27, %13
  %30 = phi i1 [ false, %13 ], [ %28, %27 ]
  br i1 %30, label %31, label %32

31:                                               ; preds = %29
  br label %13, !llvm.loop !9

32:                                               ; preds = %29
  %33 = load i64, ptr %9, align 8
  %34 = icmp slt i64 %33, 0
  br i1 %34, label %35, label %37

35:                                               ; preds = %32
  %36 = load i64, ptr %9, align 8
  store i64 %36, ptr %4, align 8
  store i32 1, ptr %10, align 4
  br label %57

37:                                               ; preds = %32
  %38 = load i64, ptr %9, align 8
  %39 = icmp eq i64 %38, 0
  br i1 %39, label %40, label %41

40:                                               ; preds = %37
  br label %51

41:                                               ; preds = %37
  %42 = load i64, ptr %9, align 8
  %43 = load i64, ptr %7, align 8
  %44 = sub i64 %43, %42
  store i64 %44, ptr %7, align 8
  %45 = load i64, ptr %9, align 8
  %46 = load ptr, ptr %8, align 8
  %47 = getelementptr i8, ptr %46, i64 %45
  store ptr %47, ptr %8, align 8
  br label %48

48:                                               ; preds = %41
  %49 = load i64, ptr %7, align 8
  %50 = icmp ugt i64 %49, 0
  br i1 %50, label %12, label %51, !llvm.loop !10

51:                                               ; preds = %48, %40
  %52 = load ptr, ptr %8, align 8
  %53 = load ptr, ptr %6, align 8
  %54 = ptrtoint ptr %52 to i64
  %55 = ptrtoint ptr %53 to i64
  %56 = sub i64 %54, %55
  store i64 %56, ptr %4, align 8
  store i32 1, ptr %10, align 4
  br label %57

57:                                               ; preds = %51, %35
  call void @llvm.lifetime.end.p0(i64 8, ptr %9) #6
  call void @llvm.lifetime.end.p0(i64 8, ptr %8) #6
  %58 = load i64, ptr %4, align 8
  ret i64 %58
}

; Function Attrs: nounwind ssp uwtable
define internal i32 @randombytes_linux_getrandom(ptr noundef %0, i64 noundef %1) #0 {
  %3 = alloca i32, align 4
  %4 = alloca ptr, align 8
  %5 = alloca i64, align 8
  %6 = alloca ptr, align 8
  %7 = alloca i64, align 8
  %8 = alloca i32, align 4
  store ptr %0, ptr %4, align 8
  store i64 %1, ptr %5, align 8
  call void @llvm.lifetime.start.p0(i64 8, ptr %6) #6
  %9 = load ptr, ptr %4, align 8
  store ptr %9, ptr %6, align 8
  call void @llvm.lifetime.start.p0(i64 8, ptr %7) #6
  store i64 256, ptr %7, align 8
  br label %10

10:                                               ; preds = %29, %2
  %11 = load i64, ptr %5, align 8
  %12 = load i64, ptr %7, align 8
  %13 = icmp ult i64 %11, %12
  br i1 %13, label %14, label %16

14:                                               ; preds = %10
  %15 = load i64, ptr %5, align 8
  store i64 %15, ptr %7, align 8
  br label %16

16:                                               ; preds = %14, %10
  %17 = load ptr, ptr %6, align 8
  %18 = load i64, ptr %7, align 8
  %19 = call i32 @_randombytes_linux_getrandom(ptr noundef %17, i64 noundef %18)
  %20 = icmp ne i32 %19, 0
  br i1 %20, label %21, label %22

21:                                               ; preds = %16
  store i32 -1, ptr %3, align 4
  store i32 1, ptr %8, align 4
  br label %33

22:                                               ; preds = %16
  %23 = load i64, ptr %7, align 8
  %24 = load i64, ptr %5, align 8
  %25 = sub i64 %24, %23
  store i64 %25, ptr %5, align 8
  %26 = load i64, ptr %7, align 8
  %27 = load ptr, ptr %6, align 8
  %28 = getelementptr i8, ptr %27, i64 %26
  store ptr %28, ptr %6, align 8
  br label %29

29:                                               ; preds = %22
  %30 = load i64, ptr %5, align 8
  %31 = icmp ugt i64 %30, 0
  br i1 %31, label %10, label %32, !llvm.loop !4

32:                                               ; preds = %29
  store i32 0, ptr %3, align 4
  store i32 1, ptr %8, align 4
  br label %33

33:                                               ; preds = %32, %21
  call void @llvm.lifetime.end.p0(i64 8, ptr %7) #6
  call void @llvm.lifetime.end.p0(i64 8, ptr %6) #6
  %34 = load i32, ptr %3, align 4
  ret i32 %34
}

; Function Attrs: nounwind ssp uwtable
define internal void @randombytes_sysrandom_stir_if_needed() #0 {
  %1 = load i32, ptr getelementptr inbounds nuw (%struct.SysRandom_, ptr @stream, i32 0, i32 1), align 4
  %2 = icmp eq i32 %1, 0
  br i1 %2, label %3, label %4

3:                                                ; preds = %0
  call void @randombytes_sysrandom_stir()
  br label %4

4:                                                ; preds = %3, %0
  ret void
}

; Function Attrs: nounwind ssp uwtable
define internal void @randombytes_sysrandom_buf(ptr noundef %0, i64 noundef %1) #0 {
  %3 = alloca ptr, align 8
  %4 = alloca i64, align 8
  store ptr %0, ptr %3, align 8
  store i64 %1, ptr %4, align 8
  call void @randombytes_sysrandom_stir_if_needed()
  %5 = load i32, ptr getelementptr inbounds nuw (%struct.SysRandom_, ptr @stream, i32 0, i32 2), align 4
  %6 = icmp ne i32 %5, 0
  br i1 %6, label %7, label %14

7:                                                ; preds = %2
  %8 = load ptr, ptr %3, align 8
  %9 = load i64, ptr %4, align 8
  %10 = call i32 @randombytes_linux_getrandom(ptr noundef %8, i64 noundef %9)
  %11 = icmp ne i32 %10, 0
  br i1 %11, label %12, label %13

12:                                               ; preds = %7
  call void @sodium_misuse() #7
  unreachable

13:                                               ; preds = %7
  br label %25

14:                                               ; preds = %2
  %15 = load i32, ptr @stream, align 4
  %16 = icmp eq i32 %15, -1
  br i1 %16, label %24, label %17

17:                                               ; preds = %14
  %18 = load i32, ptr @stream, align 4
  %19 = load ptr, ptr %3, align 8
  %20 = load i64, ptr %4, align 8
  %21 = call i64 @safe_read(i32 noundef %18, ptr noundef %19, i64 noundef %20)
  %22 = load i64, ptr %4, align 8
  %23 = icmp ne i64 %21, %22
  br i1 %23, label %24, label %25

24:                                               ; preds = %17, %14
  call void @sodium_misuse() #7
  unreachable

25:                                               ; preds = %13, %17
  ret void
}