; Function Attrs: nounwind ssp uwtable
define internal void @randombytes_sysrandom_buf(ptr noundef %0, i64 noundef %1) #1 {
  %.b.i = load i1, ptr @stream.1, align 4
  br i1 %.b.i, label %randombytes_sysrandom_stir_if_needed.exit, label %3

3:                                                ; preds = %2
  tail call void @randombytes_sysrandom_stir()
  br label %randombytes_sysrandom_stir_if_needed.exit

randombytes_sysrandom_stir_if_needed.exit:        ; preds = %2, %3
  %.b = load i1, ptr @stream.2, align 4
  br i1 %.b, label %.preheader, label %18

.preheader:                                       ; preds = %randombytes_sysrandom_stir_if_needed.exit, %15
  %.012.i = phi i64 [ %16, %15 ], [ %1, %randombytes_sysrandom_stir_if_needed.exit ]
  %.011.i = phi ptr [ %17, %15 ], [ %0, %randombytes_sysrandom_stir_if_needed.exit ]
  %.0.i = phi i64 [ %spec.select.i, %15 ], [ 256, %randombytes_sysrandom_stir_if_needed.exit ]
  %spec.select.i = tail call i64 @llvm.umin.i64(i64 %.012.i, i64 %.0.i)
  %4 = tail call i64 @getrandom(ptr noundef %.011.i, i64 noundef range(i64 0, 257) %spec.select.i, i32 noundef 0) #9
  %5 = trunc i64 %4 to i32
  %6 = icmp slt i32 %5, 0
  br i1 %6, label %.lr.ph.i.i, label %_randombytes_linux_getrandom.exit.i

.lr.ph.i.i:                                       ; preds = %.preheader
  %7 = tail call ptr @__errno_location() #10
  br label %8

8:                                                ; preds = %.critedge2.backedge.i.i, %.lr.ph.i.i
  %9 = phi i32 [ %5, %.lr.ph.i.i ], [ %12, %.critedge2.backedge.i.i ]
  %10 = load i32, ptr %7, align 4
  switch i32 %10, label %_randombytes_linux_getrandom.exit.i [
    i32 4, label %.critedge2.backedge.i.i
    i32 11, label %.critedge2.backedge.i.i
  ]

.critedge2.backedge.i.i:                          ; preds = %8, %8
  %11 = tail call i64 @getrandom(ptr noundef %.011.i, i64 noundef range(i64 0, 257) %spec.select.i, i32 noundef 0) #9
  %12 = trunc i64 %11 to i32
  %13 = icmp slt i32 %12, 0
  br i1 %13, label %8, label %_randombytes_linux_getrandom.exit.i

_randombytes_linux_getrandom.exit.i:              ; preds = %.critedge2.backedge.i.i, %8, %.preheader
  %.lcssa.i.i = phi i32 [ %5, %.preheader ], [ %9, %8 ], [ %12, %.critedge2.backedge.i.i ]
  %14 = trunc nuw nsw i64 %spec.select.i to i32
  %.not16.i = icmp eq i32 %.lcssa.i.i, %14
  br i1 %.not16.i, label %15, label %randombytes_linux_getrandom.exit

15:                                               ; preds = %_randombytes_linux_getrandom.exit.i
  %16 = sub i64 %.012.i, %spec.select.i
  %17 = getelementptr i8, ptr %.011.i, i64 %spec.select.i
  %.not15.i = icmp eq i64 %16, 0
  br i1 %.not15.i, label %randombytes_linux_getrandom.exit.thread, label %.preheader, !llvm.loop !6

randombytes_linux_getrandom.exit:                 ; preds = %_randombytes_linux_getrandom.exit.i
  tail call void @sodium_misuse() #11
  unreachable

18:                                               ; preds = %randombytes_sysrandom_stir_if_needed.exit
  %19 = load i32, ptr @stream.0, align 4
  %20 = icmp eq i32 %19, -1
  br i1 %20, label %37, label %.preheader8

.preheader8:                                      ; preds = %18, %30
  %.017.i = phi i64 [ %31, %30 ], [ %1, %18 ]
  %.016.i = phi ptr [ %32, %30 ], [ %0, %18 ]
  %21 = tail call i64 @read(i32 noundef range(i32 0, -1) %19, ptr noundef %.016.i, i64 noundef %.017.i) #9
  %22 = icmp slt i64 %21, 0
  br i1 %22, label %.lr.ph.i, label %.critedge22.i

.lr.ph.i:                                         ; preds = %.preheader8
  %23 = tail call ptr @__errno_location() #10
  br label %24

24:                                               ; preds = %.critedge2.i, %.lr.ph.i
  %25 = phi i64 [ %21, %.lr.ph.i ], [ %27, %.critedge2.i ]
  %26 = load i32, ptr %23, align 4
  switch i32 %26, label %safe_read.exit [
    i32 4, label %.critedge2.i
    i32 11, label %.critedge2.i
  ]

.critedge2.i:                                     ; preds = %24, %24
  %27 = tail call i64 @read(i32 noundef range(i32 0, -1) %19, ptr noundef %.016.i, i64 noundef %.017.i) #9
  %28 = icmp slt i64 %27, 0
  br i1 %28, label %24, label %.critedge22.i, !llvm.loop !7

.critedge22.i:                                    ; preds = %.critedge2.i, %.preheader8
  %.lcssa.i = phi i64 [ %21, %.preheader8 ], [ %27, %.critedge2.i ]
  %29 = icmp eq i64 %.lcssa.i, 0
  br i1 %29, label %33, label %30

30:                                               ; preds = %.critedge22.i
  %31 = sub i64 %.017.i, %.lcssa.i
  %32 = getelementptr i8, ptr %.016.i, i64 %.lcssa.i
  %.not.i = icmp eq i64 %31, 0
  br i1 %.not.i, label %33, label %.preheader8, !llvm.loop !8

33:                                               ; preds = %30, %.critedge22.i
  %.1.i = phi ptr [ %.016.i, %.critedge22.i ], [ %32, %30 ]
  %34 = ptrtoint ptr %.1.i to i64
  %35 = ptrtoint ptr %0 to i64
  %36 = sub i64 %34, %35
  br label %safe_read.exit

safe_read.exit:                                   ; preds = %24, %33
  %.0.i5 = phi i64 [ %36, %33 ], [ %25, %24 ]
  %.not = icmp eq i64 %.0.i5, %1
  br i1 %.not, label %randombytes_linux_getrandom.exit.thread, label %37

37:                                               ; preds = %safe_read.exit, %18
  tail call void @sodium_misuse() #11
  unreachable

randombytes_linux_getrandom.exit.thread:          ; preds = %15, %safe_read.exit
  ret void
}